target datalayout = "e-m:e-p270:32:32-p271:32:32-p272:64:64-i64:64-i128:128-f80:128-n8:16:32:64-S128"
target triple = "x86_64-unknown-linux-gnu"

%struct.OptsVisitor = type { %struct.Visitor, ptr, i32, ptr, i32, ptr, %union.anon, %union.anon, ptr }
%struct.Visitor = type { ptr, ptr, ptr, ptr, ptr, ptr, ptr, ptr, ptr, ptr, ptr, ptr, ptr, ptr, ptr, ptr, ptr, ptr, ptr, ptr, i32, %struct.CompatPolicy, ptr, ptr }
%struct.CompatPolicy = type { i8, i32, i8, i32, i8, i32, i8, i32 }
%union.anon = type { i64 }

@.str = private unnamed_addr constant [5 x i8] c"opts\00", align 1
@.str.1 = private unnamed_addr constant [28 x i8] c"../qemu/qapi/opts-visitor.c\00", align 1
@__PRETTY_FUNCTION__.opts_visitor_new = private unnamed_addr constant [44 x i8] c"Visitor *opts_visitor_new(const QemuOpts *)\00", align 1

; Function Attrs: nounwind sspstrong uwtable
define dso_local ptr @opts_visitor_new(ptr noundef %opts) #0 {
entry:
  %opts.addr = alloca ptr, align 8
  %ov = alloca ptr, align 8
  store ptr %opts, ptr %opts.addr, align 8
  %0 = load ptr, ptr %opts.addr, align 8
  %tobool = icmp ne ptr %0, null
  br i1 %tobool, label %if.then, label %if.else

if.then:                                          ; preds = %entry
  br label %if.end

if.else:                                          ; preds = %entry
  call void @__assert_fail(ptr noundef @.str, ptr noundef @.str.1, i32 noundef 557, ptr noundef @__PRETTY_FUNCTION__.opts_visitor_new) #7
  unreachable

if.end:                                           ; preds = %if.then
  %call = call noalias ptr @g_malloc0(i64 noundef 280) #8
  store ptr %call, ptr %ov, align 8
  %1 = load ptr, ptr %ov, align 8
  %visitor = getelementptr inbounds %struct.OptsVisitor, ptr %1, i32 0, i32 0
  %type = getelementptr inbounds %struct.Visitor, ptr %visitor, i32 0, i32 20
  store i32 1, ptr %type, align 8
  %2 = load ptr, ptr %ov, align 8
  %visitor1 = getelementptr inbounds %struct.OptsVisitor, ptr %2, i32 0, i32 0
  %start_struct = getelementptr inbounds %struct.Visitor, ptr %visitor1, i32 0, i32 0
  store ptr @opts_start_struct, ptr %start_struct, align 8
  %3 = load ptr, ptr %ov, align 8
  %visitor2 = getelementptr inbounds %struct.OptsVisitor, ptr %3, i32 0, i32 0
  %check_struct = getelementptr inbounds %struct.Visitor, ptr %visitor2, i32 0, i32 1
  store ptr @opts_check_struct, ptr %check_struct, align 8
  %4 = load ptr, ptr %ov, align 8
  %visitor3 = getelementptr inbounds %struct.OptsVisitor, ptr %4, i32 0, i32 0
  %end_struct = getelementptr inbounds %struct.Visitor, ptr %visitor3, i32 0, i32 2
  store ptr @opts_end_struct, ptr %end_struct, align 8
  %5 = load ptr, ptr %ov, align 8
  %visitor4 = getelementptr inbounds %struct.OptsVisitor, ptr %5, i32 0, i32 0
  %start_list = getelementptr inbounds %struct.Visitor, ptr %visitor4, i32 0, i32 3
  store ptr @opts_start_list, ptr %start_list, align 8
  %6 = load ptr, ptr %ov, align 8
  %visitor5 = getelementptr inbounds %struct.OptsVisitor, ptr %6, i32 0, i32 0
  %next_list = getelementptr inbounds %struct.Visitor, ptr %visitor5, i32 0, i32 4
  store ptr @opts_next_list, ptr %next_list, align 8
  %7 = load ptr, ptr %ov, align 8
  %visitor6 = getelementptr inbounds %struct.OptsVisitor, ptr %7, i32 0, i32 0
  %check_list = getelementptr inbounds %struct.Visitor, ptr %visitor6, i32 0, i32 5
  store ptr @opts_check_list, ptr %check_list, align 8
  %8 = load ptr, ptr %ov, align 8
  %visitor7 = getelementptr inbounds %struct.OptsVisitor, ptr %8, i32 0, i32 0
  %end_list = getelementptr inbounds %struct.Visitor, ptr %visitor7, i32 0, i32 6
  store ptr @opts_end_list, ptr %end_list, align 8
  %9 = load ptr, ptr %ov, align 8
  %visitor8 = getelementptr inbounds %struct.OptsVisitor, ptr %9, i32 0, i32 0
  %type_int64 = getelementptr inbounds %struct.Visitor, ptr %visitor8, i32 0, i32 9
  store ptr @opts_type_int64, ptr %type_int64, align 8
  %10 = load ptr, ptr %ov, align 8
  %visitor9 = getelementptr inbounds %struct.OptsVisitor, ptr %10, i32 0, i32 0
  %type_uint64 = getelementptr inbounds %struct.Visitor, ptr %visitor9, i32 0, i32 10
  store ptr @opts_type_uint64, ptr %type_uint64, align 8
  %11 = load ptr, ptr %ov, align 8
  %visitor10 = getelementptr inbounds %struct.OptsVisitor, ptr %11, i32 0, i32 0
  %type_size = getelementptr inbounds %struct.Visitor, ptr %visitor10, i32 0, i32 11
  store ptr @opts_type_size, ptr %type_size, align 8
  %12 = load ptr, ptr %ov, align 8
  %visitor11 = getelementptr inbounds %struct.OptsVisitor, ptr %12, i32 0, i32 0
  %type_bool = getelementptr inbounds %struct.Visitor, ptr %visitor11, i32 0, i32 12
  store ptr @opts_type_bool, ptr %type_bool, align 8
  %13 = load ptr, ptr %ov, align 8
  %visitor12 = getelementptr inbounds %struct.OptsVisitor, ptr %13, i32 0, i32 0
  %type_str = getelementptr inbounds %struct.Visitor, ptr %visitor12, i32 0, i32 13
  store ptr @opts_type_str, ptr %type_str, align 8
  %14 = load ptr, ptr %ov, align 8
  %visitor13 = getelementptr inbounds %struct.OptsVisitor, ptr %14, i32 0, i32 0
  %optional = getelementptr inbounds %struct.Visitor, ptr %visitor13, i32 0, i32 17
  store ptr @opts_optional, ptr %optional, align 8
  %15 = load ptr, ptr %ov, align 8
  %visitor14 = getelementptr inbounds %struct.OptsVisitor, ptr %15, i32 0, i32 0
  %free = getelementptr inbounds %struct.Visitor, ptr %visitor14, i32 0, i32 23
  store ptr @opts_free, ptr %free, align 8
  %16 = load ptr, ptr %opts.addr, align 8
  %17 = load ptr, ptr %ov, align 8
  %opts_root = getelementptr inbounds %struct.OptsVisitor, ptr %17, i32 0, i32 1
  store ptr %16, ptr %opts_root, align 8
  %18 = load ptr, ptr %ov, align 8
  %visitor15 = getelementptr inbounds %struct.OptsVisitor, ptr %18, i32 0, i32 0
  ret ptr %visitor15
}