; Function Attrs: nounwind sspstrong uwtable
define dso_local noalias noundef ptr @opts_visitor_new(ptr noundef %opts) local_unnamed_addr #0 {
entry:
  %tobool.not = icmp eq ptr %opts, null
  br i1 %tobool.not, label %if.else, label %if.end

if.else:                                          ; preds = %entry
  tail call void @__assert_fail(ptr noundef nonnull @.str, ptr noundef nonnull @.str.1, i32 noundef 557, ptr noundef nonnull @__PRETTY_FUNCTION__.opts_visitor_new) #8
  unreachable

if.end:                                           ; preds = %entry
  %call = tail call noalias dereferenceable_or_null(280) ptr @g_malloc0(i64 noundef 280) #9
  %type = getelementptr inbounds nuw i8, ptr %call, i64 160
  store i32 1, ptr %type, align 8
  store ptr @opts_start_struct, ptr %call, align 8
  %check_struct = getelementptr inbounds nuw i8, ptr %call, i64 8
  store ptr @opts_check_struct, ptr %check_struct, align 8
  %end_struct = getelementptr inbounds nuw i8, ptr %call, i64 16
  store ptr @opts_end_struct, ptr %end_struct, align 8
  %start_list = getelementptr inbounds nuw i8, ptr %call, i64 24
  store ptr @opts_start_list, ptr %start_list, align 8
  %next_list = getelementptr inbounds nuw i8, ptr %call, i64 32
  store ptr @opts_next_list, ptr %next_list, align 8
  %check_list = getelementptr inbounds nuw i8, ptr %call, i64 40
  store ptr @opts_check_list, ptr %check_list, align 8
  %end_list = getelementptr inbounds nuw i8, ptr %call, i64 48
  store ptr @opts_end_list, ptr %end_list, align 8
  %type_int64 = getelementptr inbounds nuw i8, ptr %call, i64 72
  store ptr @opts_type_int64, ptr %type_int64, align 8
  %type_uint64 = getelementptr inbounds nuw i8, ptr %call, i64 80
  store ptr @opts_type_uint64, ptr %type_uint64, align 8
  %type_size = getelementptr inbounds nuw i8, ptr %call, i64 88
  store ptr @opts_type_size, ptr %type_size, align 8
  %type_bool = getelementptr inbounds nuw i8, ptr %call, i64 96
  store ptr @opts_type_bool, ptr %type_bool, align 8
  %type_str = getelementptr inbounds nuw i8, ptr %call, i64 104
  store ptr @opts_type_str, ptr %type_str, align 8
  %optional = getelementptr inbounds nuw i8, ptr %call, i64 136
  store ptr @opts_optional, ptr %optional, align 8
  %free = getelementptr inbounds nuw i8, ptr %call, i64 208
  store ptr @opts_free, ptr %free, align 8
  %opts_root = getelementptr inbounds nuw i8, ptr %call, i64 216
  store ptr %opts, ptr %opts_root, align 8
  ret ptr %call
}